; Function Attrs: nounwind uwtable
define ptr @redisConnectUnix(ptr noundef %0) local_unnamed_addr #0 {
  %2 = alloca %struct.redisOptions, align 8
  call void @llvm.lifetime.start.p0(i64 80, ptr nonnull %2) #13
  call void @llvm.memset.p0.i64(ptr noundef nonnull align 8 dereferenceable(80) %2, i8 0, i64 80, i1 false)
  store i32 1, ptr %2, align 8, !tbaa !68
  %3 = getelementptr inbounds nuw i8, ptr %2, i64 24
  store ptr %0, ptr %3, align 8, !tbaa !22
  %4 = call ptr @redisConnectWithOptions(ptr noundef nonnull %2)
  call void @llvm.lifetime.end.p0(i64 80, ptr nonnull %2) #13
  ret ptr %4
}